target datalayout = "e-m:e-p270:32:32-p271:32:32-p272:64:64-i64:64-i128:128-f80:128-n8:16:32:64-S128"
target triple = "x86_64-pc-linux-gnu"

%struct.lv_point_t = type { i32, i32 }
%struct.lv_area_t = type { i32, i32, i32, i32 }
%struct._lv_obj_t = type { ptr, ptr, ptr, ptr, ptr, %struct.lv_area_t, i32, i16, i16 }

; Function Attrs: nounwind uwtable
define void @lv_indev_scroll_get_snap_dist(ptr noundef %0, ptr noundef %1) #0 {
  %3 = alloca ptr, align 8
  %4 = alloca ptr, align 8
  store ptr %0, ptr %3, align 8, !tbaa !3
  store ptr %1, ptr %4, align 8, !tbaa !3
  %5 = load ptr, ptr %3, align 8, !tbaa !3
  %6 = load ptr, ptr %3, align 8, !tbaa !3
  %7 = getelementptr inbounds nuw %struct._lv_obj_t, ptr %6, i32 0, i32 5
  %8 = getelementptr inbounds nuw %struct.lv_area_t, ptr %7, i32 0, i32 0
  %9 = load i32, ptr %8, align 8, !tbaa !42
  %10 = load ptr, ptr %3, align 8, !tbaa !3
  %11 = getelementptr inbounds nuw %struct._lv_obj_t, ptr %10, i32 0, i32 5
  %12 = getelementptr inbounds nuw %struct.lv_area_t, ptr %11, i32 0, i32 2
  %13 = load i32, ptr %12, align 8, !tbaa !45
  %14 = call i32 @find_snap_point_x(ptr noundef %5, i32 noundef %9, i32 noundef %13, i32 noundef 0)
  %15 = load ptr, ptr %4, align 8, !tbaa !3
  %16 = getelementptr inbounds nuw %struct.lv_point_t, ptr %15, i32 0, i32 0
  store i32 %14, ptr %16, align 4, !tbaa !30
  %17 = load ptr, ptr %3, align 8, !tbaa !3
  %18 = load ptr, ptr %3, align 8, !tbaa !3
  %19 = getelementptr inbounds nuw %struct._lv_obj_t, ptr %18, i32 0, i32 5
  %20 = getelementptr inbounds nuw %struct.lv_area_t, ptr %19, i32 0, i32 1
  %21 = load i32, ptr %20, align 4, !tbaa !37
  %22 = load ptr, ptr %3, align 8, !tbaa !3
  %23 = getelementptr inbounds nuw %struct._lv_obj_t, ptr %22, i32 0, i32 5
  %24 = getelementptr inbounds nuw %struct.lv_area_t, ptr %23, i32 0, i32 3
  %25 = load i32, ptr %24, align 4, !tbaa !41
  %26 = call i32 @find_snap_point_y(ptr noundef %17, i32 noundef %21, i32 noundef %25, i32 noundef 0)
  %27 = load ptr, ptr %4, align 8, !tbaa !3
  %28 = getelementptr inbounds nuw %struct.lv_point_t, ptr %27, i32 0, i32 1
  store i32 %26, ptr %28, align 4, !tbaa !31
  ret void
}