; Function Attrs: nounwind uwtable
define void @lv_indev_scroll_get_snap_dist(ptr noundef %0, ptr nocapture noundef writeonly %1) local_unnamed_addr #0 {
  %3 = getelementptr inbounds nuw i8, ptr %0, i64 40
  %4 = load i32, ptr %3, align 8, !tbaa !23
  %5 = getelementptr inbounds nuw i8, ptr %0, i64 48
  %6 = load i32, ptr %5, align 8, !tbaa !26
  %7 = tail call fastcc i32 @find_snap_point_x(ptr noundef %0, i32 noundef %4, i32 noundef %6, i32 noundef 0)
  store i32 %7, ptr %1, align 4, !tbaa !48
  %8 = getelementptr inbounds nuw i8, ptr %0, i64 44
  %9 = load i32, ptr %8, align 4, !tbaa !18
  %10 = getelementptr inbounds nuw i8, ptr %0, i64 52
  %11 = load i32, ptr %10, align 4, !tbaa !21
  %12 = tail call fastcc i32 @find_snap_point_y(ptr noundef %0, i32 noundef %9, i32 noundef %11, i32 noundef 0)
  %13 = getelementptr inbounds nuw i8, ptr %1, i64 4
  store i32 %12, ptr %13, align 4, !tbaa !49
  ret void
}